; Function Attrs: nounwind uwtable
define dso_local i32 @PrintFwdStats(ptr noundef %0) local_unnamed_addr #0 {
  %2 = alloca i64, align 8
  %3 = alloca i64, align 8
  %4 = alloca i64, align 8
  %5 = alloca i64, align 8
  %6 = alloca i64, align 8
  %7 = alloca i64, align 8
  %8 = alloca i64, align 8
  %9 = alloca i64, align 8
  %10 = alloca i64, align 8
  %11 = alloca i64, align 8
  %12 = alloca i64, align 8
  %13 = alloca i64, align 8
  %14 = alloca i64, align 8
  %15 = alloca i64, align 8
  %16 = alloca i32, align 4
  %17 = alloca i32, align 4
  %18 = alloca double, align 8
  %19 = alloca double, align 8
  %20 = alloca double, align 8
  %21 = alloca double, align 8
  call void @llvm.lifetime.start.p0(i64 8, ptr nonnull %2) #9
  call void @llvm.lifetime.start.p0(i64 8, ptr nonnull %3) #9
  call void @llvm.lifetime.start.p0(i64 8, ptr nonnull %4) #9
  call void @llvm.lifetime.start.p0(i64 8, ptr nonnull %5) #9
  call void @llvm.lifetime.start.p0(i64 8, ptr nonnull %6) #9
  call void @llvm.lifetime.start.p0(i64 8, ptr nonnull %7) #9
  call void @llvm.lifetime.start.p0(i64 8, ptr nonnull %8) #9
  call void @llvm.lifetime.start.p0(i64 8, ptr nonnull %9) #9
  call void @llvm.lifetime.start.p0(i64 8, ptr nonnull %10) #9
  call void @llvm.lifetime.start.p0(i64 8, ptr nonnull %11) #9
  call void @llvm.lifetime.start.p0(i64 8, ptr nonnull %12) #9
  call void @llvm.lifetime.start.p0(i64 8, ptr nonnull %13) #9
  call void @llvm.lifetime.start.p0(i64 8, ptr nonnull %14) #9
  call void @llvm.lifetime.start.p0(i64 8, ptr nonnull %15) #9
  call void @llvm.lifetime.start.p0(i64 4, ptr nonnull %16) #9
  call void @llvm.lifetime.start.p0(i64 4, ptr nonnull %17) #9
  call void @llvm.lifetime.start.p0(i64 8, ptr nonnull %18) #9
  call void @llvm.lifetime.start.p0(i64 8, ptr nonnull %19) #9
  call void @llvm.lifetime.start.p0(i64 8, ptr nonnull %20) #9
  call void @llvm.lifetime.start.p0(i64 8, ptr nonnull %21) #9
  %22 = call i32 @CVodeGetIntegratorStats(ptr noundef %0, ptr noundef nonnull %2, ptr noundef nonnull %3, ptr noundef nonnull %4, ptr noundef nonnull %7, ptr noundef nonnull %16, ptr noundef nonnull %17, ptr noundef nonnull %18, ptr noundef nonnull %19, ptr noundef nonnull %20, ptr noundef nonnull %21) #9
  %23 = call i32 @CVodeGetNonlinSolvStats(ptr noundef %0, ptr noundef nonnull %5, ptr noundef nonnull %6) #9
  %24 = call i32 @CVodeGetQuadStats(ptr noundef %0, ptr noundef nonnull %8, ptr noundef nonnull %9) #9
  %25 = call i32 @CVodeGetSensStats(ptr noundef %0, ptr noundef nonnull %10, ptr noundef nonnull %11, ptr noundef nonnull %13, ptr noundef nonnull %12) #9
  %26 = call i32 @CVodeGetQuadSensStats(ptr noundef %0, ptr noundef nonnull %14, ptr noundef nonnull %15) #9
  %27 = load i64, ptr %2, align 8, !tbaa !28
  %28 = call i32 (ptr, ...) @printf(ptr noundef nonnull dereferenceable(1) @.str.75, i64 noundef %27)
  %puts = call i32 @puts(ptr nonnull dereferenceable(1) @str.22)
  %29 = load i64, ptr %3, align 8, !tbaa !28
  %30 = load i64, ptr %8, align 8, !tbaa !28
  %31 = load i64, ptr %10, align 8, !tbaa !28
  %32 = load i64, ptr %14, align 8, !tbaa !28
  %33 = call i32 (ptr, ...) @printf(ptr noundef nonnull dereferenceable(1) @.str.77, i64 noundef %29, i64 noundef %30, i64 noundef %31, i64 noundef %32)
  %puts5 = call i32 @puts(ptr nonnull dereferenceable(1) @str.23)
  %34 = load i64, ptr %7, align 8, !tbaa !28
  %35 = load i64, ptr %9, align 8, !tbaa !28
  %36 = load i64, ptr %13, align 8, !tbaa !28
  %37 = load i64, ptr %15, align 8, !tbaa !28
  %38 = call i32 (ptr, ...) @printf(ptr noundef nonnull dereferenceable(1) @.str.79, i64 noundef %34, i64 noundef %35, i64 noundef %36, i64 noundef %37)
  %puts6 = call i32 @puts(ptr nonnull dereferenceable(1) @str.24)
  %39 = load i64, ptr %4, align 8, !tbaa !28
  %40 = load i64, ptr %12, align 8, !tbaa !28
  %41 = call i32 (ptr, ...) @printf(ptr noundef nonnull dereferenceable(1) @.str.81, i64 noundef %39, i64 noundef %40)
  %puts7 = call i32 @puts(ptr nonnull dereferenceable(1) @str.25)
  %42 = load i64, ptr %5, align 8, !tbaa !28
  %43 = call i32 (ptr, ...) @printf(ptr noundef nonnull dereferenceable(1) @.str.83, i64 noundef %42)
  %puts8 = call i32 @puts(ptr nonnull dereferenceable(1) @str.26)
  %44 = load i64, ptr %6, align 8, !tbaa !28
  %45 = call i32 (ptr, ...) @printf(ptr noundef nonnull dereferenceable(1) @.str.85, i64 noundef %44)
  %putchar = call i32 @putchar(i32 10)
  call void @llvm.lifetime.end.p0(i64 8, ptr nonnull %21) #9
  call void @llvm.lifetime.end.p0(i64 8, ptr nonnull %20) #9
  call void @llvm.lifetime.end.p0(i64 8, ptr nonnull %19) #9
  call void @llvm.lifetime.end.p0(i64 8, ptr nonnull %18) #9
  call void @llvm.lifetime.end.p0(i64 4, ptr nonnull %17) #9
  call void @llvm.lifetime.end.p0(i64 4, ptr nonnull %16) #9
  call void @llvm.lifetime.end.p0(i64 8, ptr nonnull %15) #9
  call void @llvm.lifetime.end.p0(i64 8, ptr nonnull %14) #9
  call void @llvm.lifetime.end.p0(i64 8, ptr nonnull %13) #9
  call void @llvm.lifetime.end.p0(i64 8, ptr nonnull %12) #9
  call void @llvm.lifetime.end.p0(i64 8, ptr nonnull %11) #9
  call void @llvm.lifetime.end.p0(i64 8, ptr nonnull %10) #9
  call void @llvm.lifetime.end.p0(i64 8, ptr nonnull %9) #9
  call void @llvm.lifetime.end.p0(i64 8, ptr nonnull %8) #9
  call void @llvm.lifetime.end.p0(i64 8, ptr nonnull %7) #9
  call void @llvm.lifetime.end.p0(i64 8, ptr nonnull %6) #9
  call void @llvm.lifetime.end.p0(i64 8, ptr nonnull %5) #9
  call void @llvm.lifetime.end.p0(i64 8, ptr nonnull %4) #9
  call void @llvm.lifetime.end.p0(i64 8, ptr nonnull %3) #9
  call void @llvm.lifetime.end.p0(i64 8, ptr nonnull %2) #9
  ret i32 %26
}